target datalayout = "e-m:e-p270:32:32-p271:32:32-p272:64:64-i64:64-i128:128-f80:128-n8:16:32:64-S128"
target triple = "x86_64-pc-linux-gnu"

; Function Attrs: nounwind uwtable
define dso_local i32 @fsyncFileDir(ptr noundef %0) #0 {
  %2 = alloca i32, align 4
  %3 = alloca ptr, align 8
  %4 = alloca [4097 x i8], align 16
  %5 = alloca ptr, align 8
  %6 = alloca i32, align 4
  %7 = alloca i32, align 4
  %8 = alloca i32, align 4
  store ptr %0, ptr %3, align 8, !tbaa !5
  call void @llvm.lifetime.start.p0(i64 4097, ptr %4) #13
  call void @llvm.lifetime.start.p0(i64 8, ptr %5) #13
  call void @llvm.lifetime.start.p0(i64 4, ptr %6) #13
  %9 = load ptr, ptr %3, align 8, !tbaa !5
  %10 = call i64 @strlen(ptr noundef %9) #15
  %11 = icmp ugt i64 %10, 4096
  br i1 %11, label %12, label %14

12:                                               ; preds = %1
  %13 = call ptr @__errno_location() #14
  store i32 36, ptr %13, align 4, !tbaa !10
  store i32 -1, ptr %2, align 4
  store i32 1, ptr %7, align 4
  br label %54

14:                                               ; preds = %1
  %15 = getelementptr inbounds [4097 x i8], ptr %4, i64 0, i64 0
  %16 = load ptr, ptr %3, align 8, !tbaa !5
  %17 = load ptr, ptr %3, align 8, !tbaa !5
  %18 = call i64 @strlen(ptr noundef %17) #15
  %19 = add i64 %18, 1
  call void @llvm.memcpy.p0.p0.i64(ptr align 16 %15, ptr align 1 %16, i64 %19, i1 false)
  %20 = getelementptr inbounds [4097 x i8], ptr %4, i64 0, i64 0
  %21 = call ptr @dirname(ptr noundef %20) #13
  store ptr %21, ptr %5, align 8, !tbaa !5
  %22 = load ptr, ptr %5, align 8, !tbaa !5
  %23 = call i32 (ptr, i32, ...) @open64(ptr noundef %22, i32 noundef 0)
  store i32 %23, ptr %6, align 4, !tbaa !10
  %24 = load i32, ptr %6, align 4, !tbaa !10
  %25 = icmp eq i32 %24, -1
  br i1 %25, label %26, label %32

26:                                               ; preds = %14
  %27 = call ptr @__errno_location() #14
  %28 = load i32, ptr %27, align 4, !tbaa !10
  %29 = icmp eq i32 %28, 21
  br i1 %29, label %30, label %31

30:                                               ; preds = %26
  store i32 0, ptr %2, align 4
  store i32 1, ptr %7, align 4
  br label %54

31:                                               ; preds = %26
  store i32 -1, ptr %2, align 4
  store i32 1, ptr %7, align 4
  br label %54

32:                                               ; preds = %14
  %33 = load i32, ptr %6, align 4, !tbaa !10
  %34 = call i32 @fdatasync(i32 noundef %33)
  %35 = icmp eq i32 %34, -1
  br i1 %35, label %36, label %51

36:                                               ; preds = %32
  %37 = call ptr @__errno_location() #14
  %38 = load i32, ptr %37, align 4, !tbaa !10
  %39 = icmp eq i32 %38, 9
  br i1 %39, label %51, label %40

40:                                               ; preds = %36
  %41 = call ptr @__errno_location() #14
  %42 = load i32, ptr %41, align 4, !tbaa !10
  %43 = icmp eq i32 %42, 22
  br i1 %43, label %51, label %44

44:                                               ; preds = %40
  call void @llvm.lifetime.start.p0(i64 4, ptr %8) #13
  %45 = call ptr @__errno_location() #14
  %46 = load i32, ptr %45, align 4, !tbaa !10
  store i32 %46, ptr %8, align 4, !tbaa !10
  %47 = load i32, ptr %6, align 4, !tbaa !10
  %48 = call i32 @close(i32 noundef %47)
  %49 = load i32, ptr %8, align 4, !tbaa !10
  %50 = call ptr @__errno_location() #14
  store i32 %49, ptr %50, align 4, !tbaa !10
  store i32 -1, ptr %2, align 4
  store i32 1, ptr %7, align 4
  call void @llvm.lifetime.end.p0(i64 4, ptr %8) #13
  br label %54

51:                                               ; preds = %40, %36, %32
  %52 = load i32, ptr %6, align 4, !tbaa !10
  %53 = call i32 @close(i32 noundef %52)
  store i32 0, ptr %2, align 4
  store i32 1, ptr %7, align 4
  br label %54

54:                                               ; preds = %51, %44, %31, %30, %12
  call void @llvm.lifetime.end.p0(i64 4, ptr %6) #13
  call void @llvm.lifetime.end.p0(i64 8, ptr %5) #13
  call void @llvm.lifetime.end.p0(i64 4097, ptr %4) #13
  %55 = load i32, ptr %2, align 4
  ret i32 %55
}