; Function Attrs: nounwind uwtable
define dso_local range(i32 -1, 1) i32 @fsyncFileDir(ptr noundef readonly captures(none) %0) local_unnamed_addr #4 {
  %2 = alloca [4097 x i8], align 16
  call void @llvm.lifetime.start.p0(i64 4097, ptr nonnull %2) #29
  %3 = tail call i64 @strlen(ptr noundef nonnull dereferenceable(1) %0) #31
  %4 = icmp ugt i64 %3, 4096
  br i1 %4, label %5, label %7

5:                                                ; preds = %1
  %6 = tail call ptr @__errno_location() #30
  store i32 36, ptr %6, align 4, !tbaa !5
  br label %26

7:                                                ; preds = %1
  %8 = add nuw nsw i64 %3, 1
  call void @llvm.memcpy.p0.p0.i64(ptr noundef nonnull align 16 dereferenceable(1) %2, ptr noundef nonnull align 1 dereferenceable(1) %0, i64 %8, i1 false)
  %9 = call ptr @dirname(ptr noundef nonnull %2) #29
  %10 = call i32 (ptr, i32, ...) @open64(ptr noundef %9, i32 noundef 0) #29
  %11 = icmp eq i32 %10, -1
  br i1 %11, label %12, label %16

12:                                               ; preds = %7
  %13 = tail call ptr @__errno_location() #30
  %14 = load i32, ptr %13, align 4, !tbaa !5
  %15 = icmp ne i32 %14, 21
  %. = sext i1 %15 to i32
  br label %26

16:                                               ; preds = %7
  %17 = call i32 @fdatasync(i32 noundef %10) #29
  %18 = icmp eq i32 %17, -1
  br i1 %18, label %19, label %24

19:                                               ; preds = %16
  %20 = tail call ptr @__errno_location() #30
  %21 = load i32, ptr %20, align 4, !tbaa !5
  switch i32 %21, label %22 [
    i32 9, label %24
    i32 22, label %24
  ]

22:                                               ; preds = %19
  %23 = call i32 @close(i32 noundef %10) #29
  store i32 %21, ptr %20, align 4, !tbaa !5
  br label %26

24:                                               ; preds = %19, %19, %16
  %25 = call i32 @close(i32 noundef %10) #29
  br label %26

26:                                               ; preds = %12, %24, %22, %5
  %.0 = phi i32 [ -1, %5 ], [ 0, %24 ], [ -1, %22 ], [ %., %12 ]
  call void @llvm.lifetime.end.p0(i64 4097, ptr nonnull %2) #29
  ret i32 %.0
}